; ModuleID = 'bench/ffmpeg/original/xmd.ll'
source_filename = "bench/ffmpeg/original/xmd.ll"
target datalayout = "e-m:e-p270:32:32-p271:32:32-p272:64:64-i64:64-i128:128-f80:128-n8:16:32:64-S128"
target triple = "x86_64-pc-linux-gnu"

@.str = private unnamed_addr constant [4 x i8] c"xmd\00", align 1
@.str.1 = private unnamed_addr constant [11 x i8] c"Konami XMD\00", align 1
@ff_xmd_demuxer = local_unnamed_addr constant { { ptr, ptr, i32, [4 x i8], ptr, ptr, ptr, ptr }, i32, i32, i32, [4 x i8], ptr, ptr, ptr, ptr, ptr, ptr, ptr, ptr, ptr, ptr } { { ptr, ptr, i32, [4 x i8], ptr, ptr, ptr, ptr } { ptr @.str, ptr @.str.1, i32 256, [4 x i8] zeroinitializer, ptr @.str, ptr null, ptr null, ptr null }, i32 0, i32 0, i32 0, [4 x i8] zeroinitializer, ptr @xmd_probe, ptr @xmd_read_header, ptr @ff_pcm_read_packet, ptr null, ptr null, ptr null, ptr null, ptr null, ptr null, ptr null }, align 8

; Function Attrs: mustprogress nofree norecurse nosync nounwind willreturn memory(read, inaccessiblemem: none) uwtable
define internal range(i32 0, 34) i32 @xmd_probe(ptr noundef readonly captures(none) %0) #0 {
  %2 = getelementptr inbounds nuw i8, ptr %0, i64 8
  %3 = load ptr, ptr %2, align 8, !tbaa !4
  %4 = load i32, ptr %3, align 1
  %5 = and i32 %4, 16777215
  %.not = icmp eq i32 %5, 6581624
  br i1 %.not, label %6, label %18

6:                                                ; preds = %1
  %7 = lshr i32 %4, 24
  %8 = trunc nuw i32 %7 to i8
  %9 = add i8 %8, -3
  %or.cond = icmp ult i8 %9, -2
  br i1 %or.cond, label %18, label %10

10:                                               ; preds = %6
  %11 = getelementptr inbounds nuw i8, ptr %3, i64 4
  %12 = load i16, ptr %11, align 1, !tbaa !11
  %13 = icmp eq i16 %12, 0
  br i1 %13, label %18, label %14

14:                                               ; preds = %10
  %15 = getelementptr inbounds nuw i8, ptr %3, i64 6
  %16 = load i32, ptr %15, align 1, !tbaa !11
  %17 = icmp eq i32 %16, 0
  %spec.select = select i1 %17, i32 0, i32 33
  br label %18

18:                                               ; preds = %14, %6, %10, %1
  %.0 = phi i32 [ 0, %1 ], [ 0, %10 ], [ 0, %6 ], [ %spec.select, %14 ]
  ret i32 %.0
}

; Function Attrs: nounwind uwtable
define internal range(i32 -1094995529, 1) i32 @xmd_read_header(ptr noundef %0) #1 {
  %2 = getelementptr inbounds nuw i8, ptr %0, i64 32
  %3 = load ptr, ptr %2, align 8, !tbaa !12
  %4 = tail call i64 @avio_skip(ptr noundef %3, i64 noundef 3) #3
  %5 = tail call ptr @avformat_new_stream(ptr noundef %0, ptr noundef null) #3
  %.not = icmp eq ptr %5, null
  br i1 %.not, label %28, label %6

6:                                                ; preds = %1
  %7 = getelementptr inbounds nuw i8, ptr %5, i64 16
  %8 = load ptr, ptr %7, align 8, !tbaa !27
  store i32 1, ptr %8, align 8, !tbaa !34
  %9 = getelementptr inbounds nuw i8, ptr %8, i64 4
  store i32 69683, ptr %9, align 4, !tbaa !37
  %10 = tail call i32 @avio_r8(ptr noundef %3) #3
  %11 = icmp eq i32 %10, 0
  br i1 %11, label %28, label %12

12:                                               ; preds = %6
  %13 = getelementptr inbounds nuw i8, ptr %8, i64 128
  tail call void @av_channel_layout_default(ptr noundef nonnull %13, i32 noundef %10) #3
  %14 = tail call i32 @avio_rl16(ptr noundef %3) #3
  %15 = getelementptr inbounds nuw i8, ptr %8, i64 152
  store i32 %14, ptr %15, align 8, !tbaa !38
  %16 = icmp slt i32 %14, 1
  br i1 %16, label %28, label %17

17:                                               ; preds = %12
  %18 = mul nsw i32 %10, 21
  %19 = getelementptr inbounds nuw i8, ptr %8, i64 156
  store i32 %18, ptr %19, align 4, !tbaa !39
  %20 = tail call i32 @avio_rl32(ptr noundef %3) #3
  %21 = load i32, ptr %19, align 4, !tbaa !39
  %22 = udiv i32 %20, %21
  %23 = zext i32 %22 to i64
  %24 = shl nuw nsw i64 %23, 5
  %25 = getelementptr inbounds nuw i8, ptr %5, i64 48
  store i64 %24, ptr %25, align 8, !tbaa !40
  %26 = load i32, ptr %15, align 8, !tbaa !38
  tail call void @avpriv_set_pts_info(ptr noundef nonnull %5, i32 noundef 64, i32 noundef 1, i32 noundef %26) #3
  %27 = tail call i64 @avio_skip(ptr noundef %3, i64 noundef 7) #3
  br label %28

28:                                               ; preds = %12, %6, %1, %17
  %.0 = phi i32 [ 0, %17 ], [ -12, %1 ], [ -1094995529, %6 ], [ -1094995529, %12 ]
  ret i32 %.0
}

declare i32 @ff_pcm_read_packet(ptr noundef, ptr noundef) #2

declare i64 @avio_skip(ptr noundef, i64 noundef) local_unnamed_addr #2

declare ptr @avformat_new_stream(ptr noundef, ptr noundef) local_unnamed_addr #2

declare i32 @avio_r8(ptr noundef) local_unnamed_addr #2

declare void @av_channel_layout_default(ptr noundef, i32 noundef) local_unnamed_addr #2

declare i32 @avio_rl16(ptr noundef) local_unnamed_addr #2

declare i32 @avio_rl32(ptr noundef) local_unnamed_addr #2

declare void @avpriv_set_pts_info(ptr noundef, i32 noundef, i32 noundef, i32 noundef) local_unnamed_addr #2


!llvm.module.flags = !{!0, !1, !2, !3}

!0 = !{i32 1, !"wchar_size", i32 4}
!1 = !{i32 8, !"PIC Level", i32 2}
!2 = !{i32 7, !"uwtable", i32 2}
!3 = !{i32 1, !"override-stack-alignment", i32 16}
!4 = !{!5, !6, i64 8}
!5 = !{!"AVProbeData", !6, i64 0, !6, i64 8, !10, i64 16, !6, i64 24}
!6 = !{!"p1 omnipotent char", !7, i64 0}
!7 = !{!"any pointer", !8, i64 0}
!8 = !{!"omnipotent char", !9, i64 0}
!9 = !{!"Simple C/C++ TBAA"}
!10 = !{!"int", !8, i64 0}
!11 = !{!8, !8, i64 0}
!12 = !{!13, !17, i64 32}
!13 = !{!"AVFormatContext", !14, i64 0, !15, i64 8, !16, i64 16, !7, i64 24, !17, i64 32, !10, i64 40, !10, i64 44, !18, i64 48, !10, i64 56, !20, i64 64, !10, i64 72, !21, i64 80, !6, i64 88, !22, i64 96, !22, i64 104, !22, i64 112, !10, i64 120, !10, i64 124, !10, i64 128, !22, i64 136, !22, i64 144, !6, i64 152, !10, i64 160, !10, i64 164, !23, i64 168, !10, i64 176, !10, i64 180, !10, i64 184, !10, i64 188, !24, i64 192, !22, i64 200, !10, i64 208, !10, i64 212, !25, i64 216, !10, i64 232, !10, i64 236, !10, i64 240, !10, i64 244, !22, i64 248, !10, i64 256, !10, i64 260, !10, i64 264, !10, i64 268, !10, i64 272, !10, i64 276, !10, i64 280, !10, i64 284, !10, i64 288, !10, i64 292, !10, i64 296, !10, i64 300, !22, i64 304, !10, i64 312, !10, i64 316, !10, i64 320, !10, i64 324, !10, i64 328, !6, i64 336, !6, i64 344, !6, i64 352, !6, i64 360, !10, i64 368, !26, i64 376, !26, i64 384, !26, i64 392, !26, i64 400, !10, i64 408, !7, i64 416, !7, i64 424, !22, i64 432, !6, i64 440, !7, i64 448, !7, i64 456, !22, i64 464}
!14 = !{!"p1 _ZTS7AVClass", !7, i64 0}
!15 = !{!"p1 _ZTS13AVInputFormat", !7, i64 0}
!16 = !{!"p1 _ZTS14AVOutputFormat", !7, i64 0}
!17 = !{!"p1 _ZTS11AVIOContext", !7, i64 0}
!18 = !{!"p2 _ZTS8AVStream", !19, i64 0}
!19 = !{!"any p2 pointer", !7, i64 0}
!20 = !{!"p2 _ZTS13AVStreamGroup", !19, i64 0}
!21 = !{!"p2 _ZTS9AVChapter", !19, i64 0}
!22 = !{!"long", !8, i64 0}
!23 = !{!"p2 _ZTS9AVProgram", !19, i64 0}
!24 = !{!"p1 _ZTS12AVDictionary", !7, i64 0}
!25 = !{!"AVIOInterruptCB", !7, i64 0, !7, i64 8}
!26 = !{!"p1 _ZTS7AVCodec", !7, i64 0}
!27 = !{!28, !29, i64 16}
!28 = !{!"AVStream", !14, i64 0, !10, i64 8, !10, i64 12, !29, i64 16, !7, i64 24, !30, i64 32, !22, i64 40, !22, i64 48, !22, i64 56, !10, i64 64, !10, i64 68, !30, i64 72, !24, i64 80, !30, i64 88, !31, i64 96, !10, i64 200, !30, i64 204, !10, i64 212}
!29 = !{!"p1 _ZTS17AVCodecParameters", !7, i64 0}
!30 = !{!"AVRational", !10, i64 0, !10, i64 4}
!31 = !{!"AVPacket", !32, i64 0, !22, i64 8, !22, i64 16, !6, i64 24, !10, i64 32, !10, i64 36, !10, i64 40, !33, i64 48, !10, i64 56, !22, i64 64, !22, i64 72, !7, i64 80, !32, i64 88, !30, i64 96}
!32 = !{!"p1 _ZTS11AVBufferRef", !7, i64 0}
!33 = !{!"p1 _ZTS16AVPacketSideData", !7, i64 0}
!34 = !{!35, !10, i64 0}
!35 = !{!"AVCodecParameters", !10, i64 0, !10, i64 4, !10, i64 8, !6, i64 16, !10, i64 24, !33, i64 32, !10, i64 40, !10, i64 44, !22, i64 48, !10, i64 56, !10, i64 60, !10, i64 64, !10, i64 68, !10, i64 72, !10, i64 76, !30, i64 80, !30, i64 88, !10, i64 96, !10, i64 100, !10, i64 104, !10, i64 108, !10, i64 112, !10, i64 116, !10, i64 120, !36, i64 128, !10, i64 152, !10, i64 156, !10, i64 160, !10, i64 164, !10, i64 168, !10, i64 172}
!36 = !{!"AVChannelLayout", !10, i64 0, !10, i64 4, !8, i64 8, !7, i64 16}
!37 = !{!35, !10, i64 4}
!38 = !{!35, !10, i64 152}
!39 = !{!35, !10, i64 156}
!40 = !{!28, !22, i64 48}
